target datalayout = "e-m:e-p270:32:32-p271:32:32-p272:64:64-i64:64-i128:128-f80:128-n8:16:32:64-S128"
target triple = "x86_64-pc-linux-gnu"

%struct.TokenAuxData = type { %union.YYSTYPE, i32, i32 }
%union.YYSTYPE = type { %struct.PLwdatum }
%struct.PLwdatum = type { ptr, ptr, i8, ptr }
%struct.yyguts_t = type { ptr }
%struct.plpgsql_yy_extra_type = type { %struct.core_yy_extra_type, ptr, i32, i32, i32, [4 x i32], [4 x %struct.TokenAuxData], ptr, ptr, i32 }
%struct.core_yy_extra_type = type { ptr, i64, ptr, ptr, i32, i8, i8, ptr, i32, i32, i32, i32, ptr, i32, i32, i8, i8 }

; Function Attrs: nounwind uwtable
define internal void @location_lineno_init(ptr noundef %0) #0 {
  %2 = alloca ptr, align 8
  store ptr %0, ptr %2, align 8
  %3 = load ptr, ptr %2, align 8
  %4 = getelementptr inbounds nuw %struct.yyguts_t, ptr %3, i32 0, i32 0
  %5 = load ptr, ptr %4, align 8
  %6 = getelementptr inbounds nuw %struct.plpgsql_yy_extra_type, ptr %5, i32 0, i32 1
  %7 = load ptr, ptr %6, align 8
  %8 = load ptr, ptr %2, align 8
  %9 = getelementptr inbounds nuw %struct.yyguts_t, ptr %8, i32 0, i32 0
  %10 = load ptr, ptr %9, align 8
  %11 = getelementptr inbounds nuw %struct.plpgsql_yy_extra_type, ptr %10, i32 0, i32 7
  store ptr %7, ptr %11, align 8
  %12 = load ptr, ptr %2, align 8
  %13 = getelementptr inbounds nuw %struct.yyguts_t, ptr %12, i32 0, i32 0
  %14 = load ptr, ptr %13, align 8
  %15 = getelementptr inbounds nuw %struct.plpgsql_yy_extra_type, ptr %14, i32 0, i32 9
  store i32 1, ptr %15, align 8
  %16 = load ptr, ptr %2, align 8
  %17 = getelementptr inbounds nuw %struct.yyguts_t, ptr %16, i32 0, i32 0
  %18 = load ptr, ptr %17, align 8
  %19 = getelementptr inbounds nuw %struct.plpgsql_yy_extra_type, ptr %18, i32 0, i32 7
  %20 = load ptr, ptr %19, align 8
  %21 = call ptr @strchr(ptr noundef %20, i32 noundef 10) #9
  %22 = load ptr, ptr %2, align 8
  %23 = getelementptr inbounds nuw %struct.yyguts_t, ptr %22, i32 0, i32 0
  %24 = load ptr, ptr %23, align 8
  %25 = getelementptr inbounds nuw %struct.plpgsql_yy_extra_type, ptr %24, i32 0, i32 8
  store ptr %21, ptr %25, align 8
  ret void
}

; Function Attrs: nounwind uwtable
define hidden i32 @plpgsql_location_to_lineno(i32 noundef %0, ptr noundef %1) #0 {
  %3 = alloca i32, align 4
  %4 = alloca i32, align 4
  %5 = alloca ptr, align 8
  %6 = alloca ptr, align 8
  %7 = alloca i32, align 4
  store i32 %0, ptr %4, align 4
  store ptr %1, ptr %5, align 8
  call void @llvm.lifetime.start.p0(i64 8, ptr %6) #8
  %8 = load i32, ptr %4, align 4
  %9 = icmp slt i32 %8, 0
  br i1 %9, label %17, label %10

10:                                               ; preds = %2
  %11 = load ptr, ptr %5, align 8
  %12 = getelementptr inbounds nuw %struct.yyguts_t, ptr %11, i32 0, i32 0
  %13 = load ptr, ptr %12, align 8
  %14 = getelementptr inbounds nuw %struct.plpgsql_yy_extra_type, ptr %13, i32 0, i32 1
  %15 = load ptr, ptr %14, align 8
  %16 = icmp eq ptr %15, null
  br i1 %16, label %17, label %18

17:                                               ; preds = %10, %2
  store i32 0, ptr %3, align 4
  store i32 1, ptr %7, align 4
  br label %87

18:                                               ; preds = %10
  %19 = load ptr, ptr %5, align 8
  %20 = getelementptr inbounds nuw %struct.yyguts_t, ptr %19, i32 0, i32 0
  %21 = load ptr, ptr %20, align 8
  %22 = getelementptr inbounds nuw %struct.plpgsql_yy_extra_type, ptr %21, i32 0, i32 1
  %23 = load ptr, ptr %22, align 8
  %24 = load i32, ptr %4, align 4
  %25 = sext i32 %24 to i64
  %26 = getelementptr inbounds i8, ptr %23, i64 %25
  store ptr %26, ptr %6, align 8
  %27 = load ptr, ptr %6, align 8
  %28 = load ptr, ptr %5, align 8
  %29 = getelementptr inbounds nuw %struct.yyguts_t, ptr %28, i32 0, i32 0
  %30 = load ptr, ptr %29, align 8
  %31 = getelementptr inbounds nuw %struct.plpgsql_yy_extra_type, ptr %30, i32 0, i32 7
  %32 = load ptr, ptr %31, align 8
  %33 = icmp ult ptr %27, %32
  br i1 %33, label %34, label %36

34:                                               ; preds = %18
  %35 = load ptr, ptr %5, align 8
  call void @location_lineno_init(ptr noundef %35)
  br label %36

36:                                               ; preds = %34, %18
  br label %37

37:                                               ; preds = %54, %36
  %38 = load ptr, ptr %5, align 8
  %39 = getelementptr inbounds nuw %struct.yyguts_t, ptr %38, i32 0, i32 0
  %40 = load ptr, ptr %39, align 8
  %41 = getelementptr inbounds nuw %struct.plpgsql_yy_extra_type, ptr %40, i32 0, i32 8
  %42 = load ptr, ptr %41, align 8
  %43 = icmp ne ptr %42, null
  br i1 %43, label %44, label %52

44:                                               ; preds = %37
  %45 = load ptr, ptr %6, align 8
  %46 = load ptr, ptr %5, align 8
  %47 = getelementptr inbounds nuw %struct.yyguts_t, ptr %46, i32 0, i32 0
  %48 = load ptr, ptr %47, align 8
  %49 = getelementptr inbounds nuw %struct.plpgsql_yy_extra_type, ptr %48, i32 0, i32 8
  %50 = load ptr, ptr %49, align 8
  %51 = icmp ugt ptr %45, %50
  br label %52

52:                                               ; preds = %44, %37
  %53 = phi i1 [ false, %37 ], [ %51, %44 ]
  br i1 %53, label %54, label %81

54:                                               ; preds = %52
  %55 = load ptr, ptr %5, align 8
  %56 = getelementptr inbounds nuw %struct.yyguts_t, ptr %55, i32 0, i32 0
  %57 = load ptr, ptr %56, align 8
  %58 = getelementptr inbounds nuw %struct.plpgsql_yy_extra_type, ptr %57, i32 0, i32 8
  %59 = load ptr, ptr %58, align 8
  %60 = getelementptr inbounds i8, ptr %59, i64 1
  %61 = load ptr, ptr %5, align 8
  %62 = getelementptr inbounds nuw %struct.yyguts_t, ptr %61, i32 0, i32 0
  %63 = load ptr, ptr %62, align 8
  %64 = getelementptr inbounds nuw %struct.plpgsql_yy_extra_type, ptr %63, i32 0, i32 7
  store ptr %60, ptr %64, align 8
  %65 = load ptr, ptr %5, align 8
  %66 = getelementptr inbounds nuw %struct.yyguts_t, ptr %65, i32 0, i32 0
  %67 = load ptr, ptr %66, align 8
  %68 = getelementptr inbounds nuw %struct.plpgsql_yy_extra_type, ptr %67, i32 0, i32 9
  %69 = load i32, ptr %68, align 8
  %70 = add i32 %69, 1
  store i32 %70, ptr %68, align 8
  %71 = load ptr, ptr %5, align 8
  %72 = getelementptr inbounds nuw %struct.yyguts_t, ptr %71, i32 0, i32 0
  %73 = load ptr, ptr %72, align 8
  %74 = getelementptr inbounds nuw %struct.plpgsql_yy_extra_type, ptr %73, i32 0, i32 7
  %75 = load ptr, ptr %74, align 8
  %76 = call ptr @strchr(ptr noundef %75, i32 noundef 10) #9
  %77 = load ptr, ptr %5, align 8
  %78 = getelementptr inbounds nuw %struct.yyguts_t, ptr %77, i32 0, i32 0
  %79 = load ptr, ptr %78, align 8
  %80 = getelementptr inbounds nuw %struct.plpgsql_yy_extra_type, ptr %79, i32 0, i32 8
  store ptr %76, ptr %80, align 8
  br label %37, !llvm.loop !7

81:                                               ; preds = %52
  %82 = load ptr, ptr %5, align 8
  %83 = getelementptr inbounds nuw %struct.yyguts_t, ptr %82, i32 0, i32 0
  %84 = load ptr, ptr %83, align 8
  %85 = getelementptr inbounds nuw %struct.plpgsql_yy_extra_type, ptr %84, i32 0, i32 9
  %86 = load i32, ptr %85, align 8
  store i32 %86, ptr %3, align 4
  store i32 1, ptr %7, align 4
  br label %87

87:                                               ; preds = %81, %17
  call void @llvm.lifetime.end.p0(i64 8, ptr %6) #8
  %88 = load i32, ptr %3, align 4
  ret i32 %88
}