; Function Attrs: nofree nounwind memory(readwrite, inaccessiblemem: none) uwtable
define hidden i32 @plpgsql_location_to_lineno(i32 noundef %0, ptr noundef readonly captures(none) %1) local_unnamed_addr #8 {
  %3 = icmp slt i32 %0, 0
  br i1 %3, label %47, label %4

4:                                                ; preds = %2
  %5 = load ptr, ptr %1, align 8
  %6 = getelementptr inbounds nuw i8, ptr %5, i64 88
  %7 = load ptr, ptr %6, align 8
  %8 = icmp eq ptr %7, null
  br i1 %8, label %47, label %9

9:                                                ; preds = %4
  %10 = zext nneg i32 %0 to i64
  %11 = getelementptr inbounds nuw i8, ptr %7, i64 %10
  %12 = getelementptr inbounds nuw i8, ptr %5, i64 288
  %13 = load ptr, ptr %12, align 8
  %14 = icmp ult ptr %11, %13
  br i1 %14, label %15, label %23

15:                                               ; preds = %9
  store ptr %7, ptr %12, align 8
  %16 = load ptr, ptr %1, align 8
  %17 = getelementptr inbounds nuw i8, ptr %16, i64 304
  store i32 1, ptr %17, align 8
  %18 = load ptr, ptr %1, align 8
  %19 = getelementptr inbounds nuw i8, ptr %18, i64 288
  %20 = load ptr, ptr %19, align 8
  %21 = tail call ptr @strchr(ptr noundef nonnull dereferenceable(1) %20, i32 noundef 10) #14
  %22 = getelementptr inbounds nuw i8, ptr %18, i64 296
  store ptr %21, ptr %22, align 8
  %.pre = load ptr, ptr %1, align 8
  br label %23

23:                                               ; preds = %15, %9
  %24 = phi ptr [ %.pre, %15 ], [ %5, %9 ]
  %25 = getelementptr inbounds nuw i8, ptr %24, i64 296
  %26 = load ptr, ptr %25, align 8
  %.not19 = icmp ne ptr %26, null
  %27 = icmp ugt ptr %11, %26
  %or.cond20 = and i1 %.not19, %27
  br i1 %or.cond20, label %.lr.ph, label %.critedge

.lr.ph:                                           ; preds = %23, %.lr.ph
  %28 = phi ptr [ %43, %.lr.ph ], [ %26, %23 ]
  %29 = phi ptr [ %41, %.lr.ph ], [ %24, %23 ]
  %30 = getelementptr inbounds nuw i8, ptr %28, i64 1
  %31 = getelementptr inbounds nuw i8, ptr %29, i64 288
  store ptr %30, ptr %31, align 8
  %32 = load ptr, ptr %1, align 8
  %33 = getelementptr inbounds nuw i8, ptr %32, i64 304
  %34 = load i32, ptr %33, align 8
  %35 = add i32 %34, 1
  store i32 %35, ptr %33, align 8
  %36 = load ptr, ptr %1, align 8
  %37 = getelementptr inbounds nuw i8, ptr %36, i64 288
  %38 = load ptr, ptr %37, align 8
  %39 = tail call ptr @strchr(ptr noundef nonnull dereferenceable(1) %38, i32 noundef 10) #14
  %40 = getelementptr inbounds nuw i8, ptr %36, i64 296
  store ptr %39, ptr %40, align 8
  %41 = load ptr, ptr %1, align 8
  %42 = getelementptr inbounds nuw i8, ptr %41, i64 296
  %43 = load ptr, ptr %42, align 8
  %.not = icmp ne ptr %43, null
  %44 = icmp ugt ptr %11, %43
  %or.cond = and i1 %.not, %44
  br i1 %or.cond, label %.lr.ph, label %.critedge, !llvm.loop !7

.critedge:                                        ; preds = %.lr.ph, %23
  %.lcssa = phi ptr [ %24, %23 ], [ %41, %.lr.ph ]
  %45 = getelementptr inbounds nuw i8, ptr %.lcssa, i64 304
  %46 = load i32, ptr %45, align 8
  br label %47

47:                                               ; preds = %2, %4, %.critedge
  %.0 = phi i32 [ %46, %.critedge ], [ 0, %4 ], [ 0, %2 ]
  ret i32 %.0
}